; Function Attrs: mustprogress nofree norecurse nosync nounwind willreturn memory(write, argmem: readwrite, inaccessiblemem: none) uwtable
define hidden void @mbedtls_ssl_set_hs_ca_chain(ptr noundef readonly captures(none) %0, ptr noundef %1, ptr noundef %2) local_unnamed_addr #10 {
  %4 = getelementptr inbounds nuw i8, ptr %0, i64 112
  %5 = load ptr, ptr %4, align 8, !tbaa !70
  %6 = getelementptr inbounds nuw i8, ptr %5, i64 1720
  store ptr %1, ptr %6, align 8, !tbaa !176
  %7 = getelementptr inbounds nuw i8, ptr %5, i64 1728
  store ptr %2, ptr %7, align 8, !tbaa !177
  ret void
}